target datalayout = "e-m:e-p270:32:32-p271:32:32-p272:64:64-i64:64-i128:128-f80:128-n8:16:32:64-S128"
target triple = "x86_64-pc-linux-gnu"

%struct.pmix_tma = type { ptr, ptr, ptr, ptr, ptr, ptr, ptr, ptr }
%struct.pmix_value = type { i16, %union.anon }
%union.anon = type { %struct.pmix_envar_t }
%struct.pmix_envar_t = type { ptr, ptr, i8 }

; Function Attrs: inlinehint nounwind uwtable
define internal ptr @pmix_tma_malloc(ptr noundef %0, i64 noundef %1) #3 {
  %3 = alloca ptr, align 8
  %4 = alloca ptr, align 8
  %5 = alloca i64, align 8
  store ptr %0, ptr %4, align 8, !tbaa !23
  store i64 %1, ptr %5, align 8, !tbaa !25
  %6 = load ptr, ptr %4, align 8, !tbaa !23
  %7 = icmp ne ptr null, %6
  br i1 %7, label %8, label %15

8:                                                ; preds = %2
  %9 = load ptr, ptr %4, align 8, !tbaa !23
  %10 = getelementptr inbounds nuw %struct.pmix_tma, ptr %9, i32 0, i32 0
  %11 = load ptr, ptr %10, align 8, !tbaa !235
  %12 = load ptr, ptr %4, align 8, !tbaa !23
  %13 = load i64, ptr %5, align 8, !tbaa !25
  %14 = call ptr %11(ptr noundef %12, i64 noundef %13)
  store ptr %14, ptr %3, align 8
  br label %18

15:                                               ; preds = %2
  %16 = load i64, ptr %5, align 8, !tbaa !25
  %17 = call noalias ptr @malloc(i64 noundef %16) #12
  store ptr %17, ptr %3, align 8
  br label %18

18:                                               ; preds = %15, %8
  %19 = load ptr, ptr %3, align 8
  ret ptr %19
}

; Function Attrs: inlinehint nounwind uwtable
define internal i32 @pmix_bfrops_base_tma_copy_value(ptr noundef %0, ptr noundef %1, i16 noundef zeroext %2, ptr noundef %3) #3 {
  %5 = alloca i32, align 4
  %6 = alloca ptr, align 8
  %7 = alloca ptr, align 8
  %8 = alloca i16, align 2
  %9 = alloca ptr, align 8
  %10 = alloca ptr, align 8
  store ptr %0, ptr %6, align 8, !tbaa !47
  store ptr %1, ptr %7, align 8, !tbaa !49
  store i16 %2, ptr %8, align 2, !tbaa !9
  store ptr %3, ptr %9, align 8, !tbaa !23
  %11 = load ptr, ptr %9, align 8, !tbaa !23
  %12 = call ptr @pmix_tma_malloc(ptr noundef %11, i64 noundef 32)
  %13 = load ptr, ptr %6, align 8, !tbaa !47
  store ptr %12, ptr %13, align 8, !tbaa !49
  %14 = load ptr, ptr %6, align 8, !tbaa !47
  %15 = load ptr, ptr %14, align 8, !tbaa !49
  %16 = icmp eq ptr null, %15
  %17 = xor i1 %16, true
  %18 = xor i1 %17, true
  %19 = zext i1 %18 to i32
  %20 = sext i32 %19 to i64
  %21 = call i64 @llvm.expect.i64(i64 %20, i64 0)
  %22 = icmp ne i64 %21, 0
  br i1 %22, label %23, label %24

23:                                               ; preds = %4
  store i32 -29, ptr %5, align 4
  br label %36

24:                                               ; preds = %4
  call void @llvm.lifetime.start.p0(i64 8, ptr %10) #11
  %25 = load ptr, ptr %6, align 8, !tbaa !47
  %26 = load ptr, ptr %25, align 8, !tbaa !49
  store ptr %26, ptr %10, align 8, !tbaa !49
  %27 = load ptr, ptr %7, align 8, !tbaa !49
  %28 = getelementptr inbounds nuw %struct.pmix_value, ptr %27, i32 0, i32 0
  %29 = load i16, ptr %28, align 8, !tbaa !51
  %30 = load ptr, ptr %10, align 8, !tbaa !49
  %31 = getelementptr inbounds nuw %struct.pmix_value, ptr %30, i32 0, i32 0
  store i16 %29, ptr %31, align 8, !tbaa !51
  %32 = load ptr, ptr %10, align 8, !tbaa !49
  %33 = load ptr, ptr %7, align 8, !tbaa !49
  %34 = load ptr, ptr %9, align 8, !tbaa !23
  %35 = call i32 @pmix_bfrops_base_tma_value_xfer(ptr noundef %32, ptr noundef %33, ptr noundef %34)
  store i32 %35, ptr %5, align 4
  call void @llvm.lifetime.end.p0(i64 8, ptr %10) #11
  br label %36

36:                                               ; preds = %24, %23
  %37 = load i32, ptr %5, align 4
  ret i32 %37
}

; Function Attrs: nounwind uwtable
define i32 @pmix_bfrops_base_copy_value(ptr noundef %0, ptr noundef %1, i16 noundef zeroext %2) #0 {
  %4 = alloca ptr, align 8
  %5 = alloca ptr, align 8
  %6 = alloca i16, align 2
  store ptr %0, ptr %4, align 8, !tbaa !47
  store ptr %1, ptr %5, align 8, !tbaa !49
  store i16 %2, ptr %6, align 2, !tbaa !9
  %7 = load ptr, ptr %4, align 8, !tbaa !47
  %8 = load ptr, ptr %5, align 8, !tbaa !49
  %9 = load i16, ptr %6, align 2, !tbaa !9
  %10 = call i32 @pmix_bfrops_base_tma_copy_value(ptr noundef %7, ptr noundef %8, i16 noundef zeroext %9, ptr noundef null)
  ret i32 %10
}