; Function Attrs: nounwind uwtable
define i32 @pmix_bfrops_base_copy_value(ptr noundef writeonly captures(none) initializes((0, 8)) %0, ptr noundef %1, i16 noundef zeroext %2) local_unnamed_addr #0 {
  %4 = tail call noalias noundef dereferenceable_or_null(32) ptr @malloc(i64 noundef 32) #25
  store ptr %4, ptr %0, align 8, !tbaa !41
  %5 = icmp eq ptr %4, null
  br i1 %5, label %pmix_bfrops_base_tma_copy_value.exit, label %6, !prof !43

6:                                                ; preds = %3
  %7 = load i16, ptr %1, align 8, !tbaa !44
  store i16 %7, ptr %4, align 8, !tbaa !44
  %8 = tail call fastcc i32 @pmix_bfrops_base_tma_value_xfer(ptr noundef %4, ptr noundef nonnull %1)
  br label %pmix_bfrops_base_tma_copy_value.exit

pmix_bfrops_base_tma_copy_value.exit:             ; preds = %3, %6
  %.0.i = phi i32 [ %8, %6 ], [ -29, %3 ]
  ret i32 %.0.i
}